target datalayout = "e-m:e-p270:32:32-p271:32:32-p272:64:64-i64:64-i128:128-f80:128-n8:16:32:64-S128"
target triple = "x86_64-pc-linux-gnu"

%struct.FFIOContext = type { %struct.AVIOContext, ptr, i32, i32, i64, i64, i64, i64, i32, i32, i32, i64 }
%struct.AVIOContext = type { ptr, ptr, i32, ptr, ptr, ptr, ptr, ptr, ptr, i64, i32, i32, i32, i32, i32, i64, ptr, ptr, ptr, ptr, i32, i32, ptr, ptr, ptr, i32, ptr, i64, i64 }

; Function Attrs: nounwind uwtable
define internal i32 @url_resetbuf(ptr noundef %0, i32 noundef %1) #0 {
  %3 = alloca ptr, align 8
  %4 = alloca i32, align 4
  store ptr %0, ptr %3, align 8, !tbaa !14
  store i32 %1, ptr %4, align 4, !tbaa !11
  %5 = load i32, ptr %4, align 4, !tbaa !11
  %6 = and i32 %5, 2
  %7 = icmp ne i32 %6, 0
  br i1 %7, label %8, label %21

8:                                                ; preds = %2
  %9 = load ptr, ptr %3, align 8, !tbaa !14
  %10 = getelementptr inbounds nuw %struct.AVIOContext, ptr %9, i32 0, i32 1
  %11 = load ptr, ptr %10, align 8, !tbaa !16
  %12 = load ptr, ptr %3, align 8, !tbaa !14
  %13 = getelementptr inbounds nuw %struct.AVIOContext, ptr %12, i32 0, i32 2
  %14 = load i32, ptr %13, align 8, !tbaa !20
  %15 = sext i32 %14 to i64
  %16 = getelementptr inbounds i8, ptr %11, i64 %15
  %17 = load ptr, ptr %3, align 8, !tbaa !14
  %18 = getelementptr inbounds nuw %struct.AVIOContext, ptr %17, i32 0, i32 4
  store ptr %16, ptr %18, align 8, !tbaa !38
  %19 = load ptr, ptr %3, align 8, !tbaa !14
  %20 = getelementptr inbounds nuw %struct.AVIOContext, ptr %19, i32 0, i32 12
  store i32 1, ptr %20, align 8, !tbaa !46
  br label %29

21:                                               ; preds = %2
  %22 = load ptr, ptr %3, align 8, !tbaa !14
  %23 = getelementptr inbounds nuw %struct.AVIOContext, ptr %22, i32 0, i32 1
  %24 = load ptr, ptr %23, align 8, !tbaa !16
  %25 = load ptr, ptr %3, align 8, !tbaa !14
  %26 = getelementptr inbounds nuw %struct.AVIOContext, ptr %25, i32 0, i32 4
  store ptr %24, ptr %26, align 8, !tbaa !38
  %27 = load ptr, ptr %3, align 8, !tbaa !14
  %28 = getelementptr inbounds nuw %struct.AVIOContext, ptr %27, i32 0, i32 12
  store i32 0, ptr %28, align 8, !tbaa !46
  br label %29

29:                                               ; preds = %21, %8
  ret i32 0
}

; Function Attrs: nounwind uwtable
define void @ffio_init_context(ptr noundef %0, ptr noundef %1, i32 noundef %2, i32 noundef %3, ptr noundef %4, ptr noundef %5, ptr noundef %6, ptr noundef %7) #0 {
  %9 = alloca ptr, align 8
  %10 = alloca ptr, align 8
  %11 = alloca i32, align 4
  %12 = alloca i32, align 4
  %13 = alloca ptr, align 8
  %14 = alloca ptr, align 8
  %15 = alloca ptr, align 8
  %16 = alloca ptr, align 8
  %17 = alloca ptr, align 8
  store ptr %0, ptr %9, align 8, !tbaa !4
  store ptr %1, ptr %10, align 8, !tbaa !9
  store i32 %2, ptr %11, align 4, !tbaa !11
  store i32 %3, ptr %12, align 4, !tbaa !11
  store ptr %4, ptr %13, align 8, !tbaa !13
  store ptr %5, ptr %14, align 8, !tbaa !13
  store ptr %6, ptr %15, align 8, !tbaa !13
  store ptr %7, ptr %16, align 8, !tbaa !13
  call void @llvm.lifetime.start.p0(i64 8, ptr %17) #12
  %18 = load ptr, ptr %9, align 8, !tbaa !4
  %19 = getelementptr inbounds nuw %struct.FFIOContext, ptr %18, i32 0, i32 0
  store ptr %19, ptr %17, align 8, !tbaa !14
  %20 = load ptr, ptr %9, align 8, !tbaa !4
  call void @llvm.memset.p0.i64(ptr align 8 %20, i8 0, i64 280, i1 false)
  %21 = load ptr, ptr %10, align 8, !tbaa !9
  %22 = load ptr, ptr %17, align 8, !tbaa !14
  %23 = getelementptr inbounds nuw %struct.AVIOContext, ptr %22, i32 0, i32 1
  store ptr %21, ptr %23, align 8, !tbaa !16
  %24 = load i32, ptr %11, align 4, !tbaa !11
  %25 = load ptr, ptr %17, align 8, !tbaa !14
  %26 = getelementptr inbounds nuw %struct.AVIOContext, ptr %25, i32 0, i32 2
  store i32 %24, ptr %26, align 8, !tbaa !20
  %27 = load ptr, ptr %9, align 8, !tbaa !4
  %28 = getelementptr inbounds nuw %struct.FFIOContext, ptr %27, i32 0, i32 10
  store i32 %24, ptr %28, align 8, !tbaa !21
  %29 = load ptr, ptr %10, align 8, !tbaa !9
  %30 = load ptr, ptr %17, align 8, !tbaa !14
  %31 = getelementptr inbounds nuw %struct.AVIOContext, ptr %30, i32 0, i32 3
  store ptr %29, ptr %31, align 8, !tbaa !23
  %32 = load ptr, ptr %10, align 8, !tbaa !9
  %33 = load ptr, ptr %17, align 8, !tbaa !14
  %34 = getelementptr inbounds nuw %struct.AVIOContext, ptr %33, i32 0, i32 26
  store ptr %32, ptr %34, align 8, !tbaa !24
  %35 = load ptr, ptr %13, align 8, !tbaa !13
  %36 = load ptr, ptr %17, align 8, !tbaa !14
  %37 = getelementptr inbounds nuw %struct.AVIOContext, ptr %36, i32 0, i32 5
  store ptr %35, ptr %37, align 8, !tbaa !25
  %38 = load ptr, ptr %17, align 8, !tbaa !14
  %39 = getelementptr inbounds nuw %struct.AVIOContext, ptr %38, i32 0, i32 21
  store i32 0, ptr %39, align 4, !tbaa !26
  %40 = load ptr, ptr %17, align 8, !tbaa !14
  %41 = load i32, ptr %12, align 4, !tbaa !11
  %42 = icmp ne i32 %41, 0
  %43 = select i1 %42, i32 2, i32 1
  %44 = call i32 @url_resetbuf(ptr noundef %40, i32 noundef %43)
  %45 = load ptr, ptr %15, align 8, !tbaa !13
  %46 = load ptr, ptr %17, align 8, !tbaa !14
  %47 = getelementptr inbounds nuw %struct.AVIOContext, ptr %46, i32 0, i32 7
  store ptr %45, ptr %47, align 8, !tbaa !27
  %48 = load ptr, ptr %14, align 8, !tbaa !13
  %49 = load ptr, ptr %17, align 8, !tbaa !14
  %50 = getelementptr inbounds nuw %struct.AVIOContext, ptr %49, i32 0, i32 6
  store ptr %48, ptr %50, align 8, !tbaa !28
  %51 = load ptr, ptr %16, align 8, !tbaa !13
  %52 = load ptr, ptr %17, align 8, !tbaa !14
  %53 = getelementptr inbounds nuw %struct.AVIOContext, ptr %52, i32 0, i32 8
  store ptr %51, ptr %53, align 8, !tbaa !29
  %54 = load ptr, ptr %17, align 8, !tbaa !14
  %55 = getelementptr inbounds nuw %struct.AVIOContext, ptr %54, i32 0, i32 9
  store i64 0, ptr %55, align 8, !tbaa !30
  %56 = load ptr, ptr %17, align 8, !tbaa !14
  %57 = getelementptr inbounds nuw %struct.AVIOContext, ptr %56, i32 0, i32 10
  store i32 0, ptr %57, align 8, !tbaa !31
  %58 = load ptr, ptr %17, align 8, !tbaa !14
  %59 = getelementptr inbounds nuw %struct.AVIOContext, ptr %58, i32 0, i32 11
  store i32 0, ptr %59, align 4, !tbaa !32
  %60 = load ptr, ptr %16, align 8, !tbaa !13
  %61 = icmp ne ptr %60, null
  %62 = select i1 %61, i32 1, i32 0
  %63 = load ptr, ptr %17, align 8, !tbaa !14
  %64 = getelementptr inbounds nuw %struct.AVIOContext, ptr %63, i32 0, i32 20
  store i32 %62, ptr %64, align 8, !tbaa !33
  %65 = load ptr, ptr %17, align 8, !tbaa !14
  %66 = getelementptr inbounds nuw %struct.AVIOContext, ptr %65, i32 0, i32 14
  store i32 0, ptr %66, align 8, !tbaa !34
  %67 = load ptr, ptr %17, align 8, !tbaa !14
  %68 = getelementptr inbounds nuw %struct.AVIOContext, ptr %67, i32 0, i32 13
  store i32 0, ptr %68, align 4, !tbaa !35
  %69 = load ptr, ptr %17, align 8, !tbaa !14
  %70 = getelementptr inbounds nuw %struct.AVIOContext, ptr %69, i32 0, i32 17
  store ptr null, ptr %70, align 8, !tbaa !36
  %71 = load ptr, ptr %9, align 8, !tbaa !4
  %72 = getelementptr inbounds nuw %struct.FFIOContext, ptr %71, i32 0, i32 2
  store i32 32768, ptr %72, align 8, !tbaa !37
  %73 = load ptr, ptr %14, align 8, !tbaa !13
  %74 = icmp ne ptr %73, null
  br i1 %74, label %91, label %75

75:                                               ; preds = %8
  %76 = load i32, ptr %12, align 4, !tbaa !11
  %77 = icmp ne i32 %76, 0
  br i1 %77, label %91, label %78

78:                                               ; preds = %75
  %79 = load i32, ptr %11, align 4, !tbaa !11
  %80 = sext i32 %79 to i64
  %81 = load ptr, ptr %17, align 8, !tbaa !14
  %82 = getelementptr inbounds nuw %struct.AVIOContext, ptr %81, i32 0, i32 9
  store i64 %80, ptr %82, align 8, !tbaa !30
  %83 = load ptr, ptr %17, align 8, !tbaa !14
  %84 = getelementptr inbounds nuw %struct.AVIOContext, ptr %83, i32 0, i32 1
  %85 = load ptr, ptr %84, align 8, !tbaa !16
  %86 = load i32, ptr %11, align 4, !tbaa !11
  %87 = sext i32 %86 to i64
  %88 = getelementptr inbounds i8, ptr %85, i64 %87
  %89 = load ptr, ptr %17, align 8, !tbaa !14
  %90 = getelementptr inbounds nuw %struct.AVIOContext, ptr %89, i32 0, i32 4
  store ptr %88, ptr %90, align 8, !tbaa !38
  br label %91

91:                                               ; preds = %78, %75, %8
  %92 = load ptr, ptr %17, align 8, !tbaa !14
  %93 = getelementptr inbounds nuw %struct.AVIOContext, ptr %92, i32 0, i32 18
  store ptr null, ptr %93, align 8, !tbaa !39
  %94 = load ptr, ptr %17, align 8, !tbaa !14
  %95 = getelementptr inbounds nuw %struct.AVIOContext, ptr %94, i32 0, i32 19
  store ptr null, ptr %95, align 8, !tbaa !40
  %96 = load ptr, ptr %17, align 8, !tbaa !14
  %97 = getelementptr inbounds nuw %struct.AVIOContext, ptr %96, i32 0, i32 24
  store ptr null, ptr %97, align 8, !tbaa !41
  %98 = load ptr, ptr %17, align 8, !tbaa !14
  %99 = getelementptr inbounds nuw %struct.AVIOContext, ptr %98, i32 0, i32 25
  store i32 0, ptr %99, align 8, !tbaa !42
  %100 = load ptr, ptr %9, align 8, !tbaa !4
  %101 = getelementptr inbounds nuw %struct.FFIOContext, ptr %100, i32 0, i32 3
  store i32 3, ptr %101, align 4, !tbaa !43
  %102 = load ptr, ptr %9, align 8, !tbaa !4
  %103 = getelementptr inbounds nuw %struct.FFIOContext, ptr %102, i32 0, i32 4
  store i64 -9223372036854775808, ptr %103, align 8, !tbaa !44
  %104 = load ptr, ptr %9, align 8, !tbaa !4
  %105 = getelementptr inbounds nuw %struct.FFIOContext, ptr %104, i32 0, i32 1
  store ptr null, ptr %105, align 8, !tbaa !45
  call void @llvm.lifetime.end.p0(i64 8, ptr %17) #12
  ret void
}