; Function Attrs: mustprogress nofree norecurse nosync nounwind willreturn memory(argmem: write) uwtable
define void @ffio_init_context(ptr noundef writeonly captures(none) initializes((0, 280)) %0, ptr noundef %1, i32 noundef %2, i32 noundef %3, ptr noundef %4, ptr noundef %5, ptr noundef %6, ptr noundef %7) local_unnamed_addr #0 {
url_resetbuf.exit:
  tail call void @llvm.memset.p0.i64(ptr noundef nonnull align 8 dereferenceable(280) %0, i8 0, i64 280, i1 false)
  %8 = getelementptr inbounds nuw i8, ptr %0, i64 8
  store ptr %1, ptr %8, align 8, !tbaa !4
  %9 = getelementptr inbounds nuw i8, ptr %0, i64 16
  store i32 %2, ptr %9, align 8, !tbaa !13
  %10 = getelementptr inbounds nuw i8, ptr %0, i64 264
  store i32 %2, ptr %10, align 8, !tbaa !14
  %11 = getelementptr inbounds nuw i8, ptr %0, i64 24
  store ptr %1, ptr %11, align 8, !tbaa !16
  %12 = getelementptr inbounds nuw i8, ptr %0, i64 184
  store ptr %1, ptr %12, align 8, !tbaa !17
  %13 = getelementptr inbounds nuw i8, ptr %0, i64 40
  store ptr %4, ptr %13, align 8, !tbaa !18
  %14 = icmp ne i32 %3, 0
  %narrow = select i1 %14, i32 %2, i32 0
  %.sink7.i.idx = sext i32 %narrow to i64
  %.sink7.i = getelementptr inbounds i8, ptr %1, i64 %.sink7.i.idx
  %.sink.i = zext i1 %14 to i32
  %15 = getelementptr inbounds nuw i8, ptr %0, i64 32
  store ptr %.sink7.i, ptr %15, align 8, !tbaa !19
  %16 = getelementptr inbounds nuw i8, ptr %0, i64 88
  store i32 %.sink.i, ptr %16, align 8, !tbaa !20
  %17 = getelementptr inbounds nuw i8, ptr %0, i64 56
  store ptr %6, ptr %17, align 8, !tbaa !21
  %18 = getelementptr inbounds nuw i8, ptr %0, i64 48
  store ptr %5, ptr %18, align 8, !tbaa !22
  %19 = getelementptr inbounds nuw i8, ptr %0, i64 64
  store ptr %7, ptr %19, align 8, !tbaa !23
  %20 = getelementptr inbounds nuw i8, ptr %0, i64 72
  %.not = icmp ne ptr %7, null
  %21 = zext i1 %.not to i32
  %22 = getelementptr inbounds nuw i8, ptr %0, i64 144
  tail call void @llvm.memset.p0.i64(ptr noundef nonnull align 8 dereferenceable(16) %20, i8 0, i64 16, i1 false)
  store i32 %21, ptr %22, align 8, !tbaa !24
  %23 = getelementptr inbounds nuw i8, ptr %0, i64 92
  store i32 0, ptr %23, align 4, !tbaa !25
  %24 = getelementptr inbounds nuw i8, ptr %0, i64 216
  store i32 32768, ptr %24, align 8, !tbaa !26
  %25 = icmp ne ptr %5, null
  %or.cond = or i1 %14, %25
  br i1 %or.cond, label %29, label %26

26:                                               ; preds = %url_resetbuf.exit
  %27 = sext i32 %2 to i64
  store i64 %27, ptr %20, align 8, !tbaa !27
  %28 = getelementptr inbounds i8, ptr %1, i64 %27
  store ptr %28, ptr %15, align 8, !tbaa !19
  br label %29

29:                                               ; preds = %26, %url_resetbuf.exit
  %30 = getelementptr inbounds nuw i8, ptr %0, i64 128
  %31 = getelementptr inbounds nuw i8, ptr %0, i64 168
  store ptr null, ptr %31, align 8, !tbaa !28
  %32 = getelementptr inbounds nuw i8, ptr %0, i64 176
  store i32 0, ptr %32, align 8, !tbaa !29
  %33 = getelementptr inbounds nuw i8, ptr %0, i64 220
  tail call void @llvm.memset.p0.i64(ptr noundef nonnull align 8 dereferenceable(16) %30, i8 0, i64 16, i1 false)
  store i32 3, ptr %33, align 4, !tbaa !30
  %34 = getelementptr inbounds nuw i8, ptr %0, i64 224
  store i64 -9223372036854775808, ptr %34, align 8, !tbaa !31
  %35 = getelementptr inbounds nuw i8, ptr %0, i64 208
  store ptr null, ptr %35, align 8, !tbaa !32
  ret void
}